target datalayout = "e-m:e-p270:32:32-p271:32:32-p272:64:64-i64:64-i128:128-f80:128-n8:16:32:64-S128"
target triple = "x86_64-pc-linux-gnu"

%class.btVector3 = type { [4 x float] }
%class.btTransform = type { %class.btMatrix3x3, %class.btVector3 }
%class.btMatrix3x3 = type { [3 x %class.btVector3] }

; Function Attrs: inlinehint mustprogress nounwind uwtable
define linkonce_odr dso_local void @_ZN9btVector38setValueERKfS1_S1_(ptr noundef nonnull align 4 dereferenceable(16) %0, ptr noundef nonnull align 4 dereferenceable(4) %1, ptr noundef nonnull align 4 dereferenceable(4) %2, ptr noundef nonnull align 4 dereferenceable(4) %3) #4 comdat align 2 {
  %5 = alloca ptr, align 8
  %6 = alloca ptr, align 8
  %7 = alloca ptr, align 8
  %8 = alloca ptr, align 8
  store ptr %0, ptr %5, align 8, !tbaa !14
  store ptr %1, ptr %6, align 8, !tbaa !26
  store ptr %2, ptr %7, align 8, !tbaa !26
  store ptr %3, ptr %8, align 8, !tbaa !26
  %9 = load ptr, ptr %5, align 8
  %10 = load ptr, ptr %6, align 8, !tbaa !26
  %11 = load float, ptr %10, align 4, !tbaa !16
  %12 = getelementptr inbounds nuw %class.btVector3, ptr %9, i32 0, i32 0
  %13 = getelementptr inbounds [4 x float], ptr %12, i64 0, i64 0
  store float %11, ptr %13, align 4, !tbaa !16
  %14 = load ptr, ptr %7, align 8, !tbaa !26
  %15 = load float, ptr %14, align 4, !tbaa !16
  %16 = getelementptr inbounds nuw %class.btVector3, ptr %9, i32 0, i32 0
  %17 = getelementptr inbounds [4 x float], ptr %16, i64 0, i64 1
  store float %15, ptr %17, align 4, !tbaa !16
  %18 = load ptr, ptr %8, align 8, !tbaa !26
  %19 = load float, ptr %18, align 4, !tbaa !16
  %20 = getelementptr inbounds nuw %class.btVector3, ptr %9, i32 0, i32 0
  %21 = getelementptr inbounds [4 x float], ptr %20, i64 0, i64 2
  store float %19, ptr %21, align 4, !tbaa !16
  %22 = getelementptr inbounds nuw %class.btVector3, ptr %9, i32 0, i32 0
  %23 = getelementptr inbounds [4 x float], ptr %22, i64 0, i64 3
  store float 0.000000e+00, ptr %23, align 4, !tbaa !16
  ret void
}

; Function Attrs: inlinehint mustprogress nounwind uwtable
define linkonce_odr dso_local noundef nonnull align 4 dereferenceable(4) ptr @_ZNK9btVector31zEv(ptr noundef nonnull align 4 dereferenceable(16) %0) #4 comdat align 2 {
  %2 = alloca ptr, align 8
  store ptr %0, ptr %2, align 8, !tbaa !14
  %3 = load ptr, ptr %2, align 8
  %4 = getelementptr inbounds nuw %class.btVector3, ptr %3, i32 0, i32 0
  %5 = getelementptr inbounds [4 x float], ptr %4, i64 0, i64 2
  ret ptr %5
}

; Function Attrs: inlinehint mustprogress nounwind uwtable
define linkonce_odr dso_local noundef nonnull align 4 dereferenceable(4) ptr @_ZNK9btVector31yEv(ptr noundef nonnull align 4 dereferenceable(16) %0) #4 comdat align 2 {
  %2 = alloca ptr, align 8
  store ptr %0, ptr %2, align 8, !tbaa !14
  %3 = load ptr, ptr %2, align 8
  %4 = getelementptr inbounds nuw %class.btVector3, ptr %3, i32 0, i32 0
  %5 = getelementptr inbounds [4 x float], ptr %4, i64 0, i64 1
  ret ptr %5
}

; Function Attrs: inlinehint mustprogress nounwind uwtable
define linkonce_odr dso_local noundef nonnull align 4 dereferenceable(4) ptr @_ZNK9btVector31xEv(ptr noundef nonnull align 4 dereferenceable(16) %0) #4 comdat align 2 {
  %2 = alloca ptr, align 8
  store ptr %0, ptr %2, align 8, !tbaa !14
  %3 = load ptr, ptr %2, align 8
  %4 = getelementptr inbounds nuw %class.btVector3, ptr %3, i32 0, i32 0
  %5 = getelementptr inbounds [4 x float], ptr %4, i64 0, i64 0
  ret ptr %5
}

; Function Attrs: inlinehint mustprogress nounwind uwtable
define linkonce_odr dso_local noundef nonnull align 4 dereferenceable(16) ptr @_ZNK11btMatrix3x3ixEi(ptr noundef nonnull align 4 dereferenceable(48) %0, i32 noundef %1) #4 comdat align 2 {
  %3 = alloca ptr, align 8
  %4 = alloca i32, align 4
  store ptr %0, ptr %3, align 8, !tbaa !30
  store i32 %1, ptr %4, align 4, !tbaa !9
  %5 = load ptr, ptr %3, align 8
  %6 = getelementptr inbounds nuw %class.btMatrix3x3, ptr %5, i32 0, i32 0
  %7 = load i32, ptr %4, align 4, !tbaa !9
  %8 = sext i32 %7 to i64
  %9 = getelementptr inbounds [3 x %class.btVector3], ptr %6, i64 0, i64 %8
  ret ptr %9
}

; Function Attrs: inlinehint mustprogress nounwind uwtable
define linkonce_odr dso_local noundef nonnull align 4 dereferenceable(48) ptr @_ZNK11btTransform8getBasisEv(ptr noundef nonnull align 4 dereferenceable(64) %0) #4 comdat align 2 {
  %2 = alloca ptr, align 8
  store ptr %0, ptr %2, align 8, !tbaa !28
  %3 = load ptr, ptr %2, align 8
  %4 = getelementptr inbounds nuw %class.btTransform, ptr %3, i32 0, i32 0
  ret ptr %4
}

; Function Attrs: mustprogress uwtable
define dso_local void @_Z24InverseTransformPoint3x3R9btVector3RKS_RK11btTransform(ptr noundef nonnull align 4 dereferenceable(16) %0, ptr noundef nonnull align 4 dereferenceable(16) %1, ptr noundef nonnull align 4 dereferenceable(64) %2) #7 {
  %4 = alloca ptr, align 8
  %5 = alloca ptr, align 8
  %6 = alloca ptr, align 8
  %7 = alloca ptr, align 8
  %8 = alloca ptr, align 8
  %9 = alloca ptr, align 8
  %10 = alloca ptr, align 8
  %11 = alloca float, align 4
  %12 = alloca float, align 4
  %13 = alloca float, align 4
  store ptr %0, ptr %4, align 8, !tbaa !14
  store ptr %1, ptr %5, align 8, !tbaa !14
  store ptr %2, ptr %6, align 8, !tbaa !28
  call void @llvm.lifetime.start.p0(i64 8, ptr %7) #12
  %14 = load ptr, ptr %6, align 8, !tbaa !28
  %15 = call noundef nonnull align 4 dereferenceable(48) ptr @_ZNK11btTransform8getBasisEv(ptr noundef nonnull align 4 dereferenceable(64) %14)
  store ptr %15, ptr %7, align 8, !tbaa !30
  call void @llvm.lifetime.start.p0(i64 8, ptr %8) #12
  %16 = load ptr, ptr %7, align 8, !tbaa !30
  %17 = call noundef nonnull align 4 dereferenceable(16) ptr @_ZNK11btMatrix3x3ixEi(ptr noundef nonnull align 4 dereferenceable(48) %16, i32 noundef 0)
  store ptr %17, ptr %8, align 8, !tbaa !14
  call void @llvm.lifetime.start.p0(i64 8, ptr %9) #12
  %18 = load ptr, ptr %7, align 8, !tbaa !30
  %19 = call noundef nonnull align 4 dereferenceable(16) ptr @_ZNK11btMatrix3x3ixEi(ptr noundef nonnull align 4 dereferenceable(48) %18, i32 noundef 1)
  store ptr %19, ptr %9, align 8, !tbaa !14
  call void @llvm.lifetime.start.p0(i64 8, ptr %10) #12
  %20 = load ptr, ptr %7, align 8, !tbaa !30
  %21 = call noundef nonnull align 4 dereferenceable(16) ptr @_ZNK11btMatrix3x3ixEi(ptr noundef nonnull align 4 dereferenceable(48) %20, i32 noundef 2)
  store ptr %21, ptr %10, align 8, !tbaa !14
  call void @llvm.lifetime.start.p0(i64 4, ptr %11) #12
  %22 = load ptr, ptr %8, align 8, !tbaa !14
  %23 = call noundef nonnull align 4 dereferenceable(4) ptr @_ZNK9btVector31xEv(ptr noundef nonnull align 4 dereferenceable(16) %22)
  %24 = load float, ptr %23, align 4, !tbaa !16
  %25 = load ptr, ptr %5, align 8, !tbaa !14
  %26 = call noundef nonnull align 4 dereferenceable(4) ptr @_ZNK9btVector31xEv(ptr noundef nonnull align 4 dereferenceable(16) %25)
  %27 = load float, ptr %26, align 4, !tbaa !16
  %28 = load ptr, ptr %9, align 8, !tbaa !14
  %29 = call noundef nonnull align 4 dereferenceable(4) ptr @_ZNK9btVector31xEv(ptr noundef nonnull align 4 dereferenceable(16) %28)
  %30 = load float, ptr %29, align 4, !tbaa !16
  %31 = load ptr, ptr %5, align 8, !tbaa !14
  %32 = call noundef nonnull align 4 dereferenceable(4) ptr @_ZNK9btVector31yEv(ptr noundef nonnull align 4 dereferenceable(16) %31)
  %33 = load float, ptr %32, align 4, !tbaa !16
  %34 = fmul float %30, %33
  %35 = call float @llvm.fmuladd.f32(float %24, float %27, float %34)
  %36 = load ptr, ptr %10, align 8, !tbaa !14
  %37 = call noundef nonnull align 4 dereferenceable(4) ptr @_ZNK9btVector31xEv(ptr noundef nonnull align 4 dereferenceable(16) %36)
  %38 = load float, ptr %37, align 4, !tbaa !16
  %39 = load ptr, ptr %5, align 8, !tbaa !14
  %40 = call noundef nonnull align 4 dereferenceable(4) ptr @_ZNK9btVector31zEv(ptr noundef nonnull align 4 dereferenceable(16) %39)
  %41 = load float, ptr %40, align 4, !tbaa !16
  %42 = call float @llvm.fmuladd.f32(float %38, float %41, float %35)
  store float %42, ptr %11, align 4, !tbaa !16
  call void @llvm.lifetime.start.p0(i64 4, ptr %12) #12
  %43 = load ptr, ptr %8, align 8, !tbaa !14
  %44 = call noundef nonnull align 4 dereferenceable(4) ptr @_ZNK9btVector31yEv(ptr noundef nonnull align 4 dereferenceable(16) %43)
  %45 = load float, ptr %44, align 4, !tbaa !16
  %46 = load ptr, ptr %5, align 8, !tbaa !14
  %47 = call noundef nonnull align 4 dereferenceable(4) ptr @_ZNK9btVector31xEv(ptr noundef nonnull align 4 dereferenceable(16) %46)
  %48 = load float, ptr %47, align 4, !tbaa !16
  %49 = load ptr, ptr %9, align 8, !tbaa !14
  %50 = call noundef nonnull align 4 dereferenceable(4) ptr @_ZNK9btVector31yEv(ptr noundef nonnull align 4 dereferenceable(16) %49)
  %51 = load float, ptr %50, align 4, !tbaa !16
  %52 = load ptr, ptr %5, align 8, !tbaa !14
  %53 = call noundef nonnull align 4 dereferenceable(4) ptr @_ZNK9btVector31yEv(ptr noundef nonnull align 4 dereferenceable(16) %52)
  %54 = load float, ptr %53, align 4, !tbaa !16
  %55 = fmul float %51, %54
  %56 = call float @llvm.fmuladd.f32(float %45, float %48, float %55)
  %57 = load ptr, ptr %10, align 8, !tbaa !14
  %58 = call noundef nonnull align 4 dereferenceable(4) ptr @_ZNK9btVector31yEv(ptr noundef nonnull align 4 dereferenceable(16) %57)
  %59 = load float, ptr %58, align 4, !tbaa !16
  %60 = load ptr, ptr %5, align 8, !tbaa !14
  %61 = call noundef nonnull align 4 dereferenceable(4) ptr @_ZNK9btVector31zEv(ptr noundef nonnull align 4 dereferenceable(16) %60)
  %62 = load float, ptr %61, align 4, !tbaa !16
  %63 = call float @llvm.fmuladd.f32(float %59, float %62, float %56)
  store float %63, ptr %12, align 4, !tbaa !16
  call void @llvm.lifetime.start.p0(i64 4, ptr %13) #12
  %64 = load ptr, ptr %8, align 8, !tbaa !14
  %65 = call noundef nonnull align 4 dereferenceable(4) ptr @_ZNK9btVector31zEv(ptr noundef nonnull align 4 dereferenceable(16) %64)
  %66 = load float, ptr %65, align 4, !tbaa !16
  %67 = load ptr, ptr %5, align 8, !tbaa !14
  %68 = call noundef nonnull align 4 dereferenceable(4) ptr @_ZNK9btVector31xEv(ptr noundef nonnull align 4 dereferenceable(16) %67)
  %69 = load float, ptr %68, align 4, !tbaa !16
  %70 = load ptr, ptr %9, align 8, !tbaa !14
  %71 = call noundef nonnull align 4 dereferenceable(4) ptr @_ZNK9btVector31zEv(ptr noundef nonnull align 4 dereferenceable(16) %70)
  %72 = load float, ptr %71, align 4, !tbaa !16
  %73 = load ptr, ptr %5, align 8, !tbaa !14
  %74 = call noundef nonnull align 4 dereferenceable(4) ptr @_ZNK9btVector31yEv(ptr noundef nonnull align 4 dereferenceable(16) %73)
  %75 = load float, ptr %74, align 4, !tbaa !16
  %76 = fmul float %72, %75
  %77 = call float @llvm.fmuladd.f32(float %66, float %69, float %76)
  %78 = load ptr, ptr %10, align 8, !tbaa !14
  %79 = call noundef nonnull align 4 dereferenceable(4) ptr @_ZNK9btVector31zEv(ptr noundef nonnull align 4 dereferenceable(16) %78)
  %80 = load float, ptr %79, align 4, !tbaa !16
  %81 = load ptr, ptr %5, align 8, !tbaa !14
  %82 = call noundef nonnull align 4 dereferenceable(4) ptr @_ZNK9btVector31zEv(ptr noundef nonnull align 4 dereferenceable(16) %81)
  %83 = load float, ptr %82, align 4, !tbaa !16
  %84 = call float @llvm.fmuladd.f32(float %80, float %83, float %77)
  store float %84, ptr %13, align 4, !tbaa !16
  %85 = load ptr, ptr %4, align 8, !tbaa !14
  call void @_ZN9btVector38setValueERKfS1_S1_(ptr noundef nonnull align 4 dereferenceable(16) %85, ptr noundef nonnull align 4 dereferenceable(4) %11, ptr noundef nonnull align 4 dereferenceable(4) %12, ptr noundef nonnull align 4 dereferenceable(4) %13)
  call void @llvm.lifetime.end.p0(i64 4, ptr %13) #12
  call void @llvm.lifetime.end.p0(i64 4, ptr %12) #12
  call void @llvm.lifetime.end.p0(i64 4, ptr %11) #12
  call void @llvm.lifetime.end.p0(i64 8, ptr %10) #12
  call void @llvm.lifetime.end.p0(i64 8, ptr %9) #12
  call void @llvm.lifetime.end.p0(i64 8, ptr %8) #12
  call void @llvm.lifetime.end.p0(i64 8, ptr %7) #12
  ret void
}