; Function Attrs: mustprogress nofree norecurse nosync nounwind willreturn memory(argmem: readwrite) uwtable
define dso_local void @_Z24InverseTransformPoint3x3R9btVector3RKS_RK11btTransform(ptr noundef nonnull writeonly align 4 captures(none) dereferenceable(16) initializes((0, 16)) %0, ptr noundef nonnull readonly align 4 captures(none) dereferenceable(16) %1, ptr noundef nonnull readonly align 4 captures(none) dereferenceable(64) %2) local_unnamed_addr #3 {
  %4 = getelementptr inbounds nuw i8, ptr %2, i64 16
  %5 = getelementptr inbounds nuw i8, ptr %2, i64 32
  %6 = load float, ptr %2, align 4, !tbaa !14
  %7 = load float, ptr %1, align 4, !tbaa !14
  %8 = load float, ptr %4, align 4, !tbaa !14
  %9 = getelementptr inbounds nuw i8, ptr %1, i64 4
  %10 = load float, ptr %9, align 4, !tbaa !14
  %11 = fmul float %8, %10
  %12 = tail call float @llvm.fmuladd.f32(float %6, float %7, float %11)
  %13 = load float, ptr %5, align 4, !tbaa !14
  %14 = getelementptr inbounds nuw i8, ptr %1, i64 8
  %15 = load float, ptr %14, align 4, !tbaa !14
  %16 = tail call float @llvm.fmuladd.f32(float %13, float %15, float %12)
  %17 = getelementptr inbounds nuw i8, ptr %2, i64 4
  %18 = load float, ptr %17, align 4, !tbaa !14
  %19 = getelementptr inbounds nuw i8, ptr %2, i64 20
  %20 = load float, ptr %19, align 4, !tbaa !14
  %21 = fmul float %10, %20
  %22 = tail call float @llvm.fmuladd.f32(float %18, float %7, float %21)
  %23 = getelementptr inbounds nuw i8, ptr %2, i64 36
  %24 = load float, ptr %23, align 4, !tbaa !14
  %25 = tail call float @llvm.fmuladd.f32(float %24, float %15, float %22)
  %26 = getelementptr inbounds nuw i8, ptr %2, i64 8
  %27 = load float, ptr %26, align 4, !tbaa !14
  %28 = getelementptr inbounds nuw i8, ptr %2, i64 24
  %29 = load float, ptr %28, align 4, !tbaa !14
  %30 = fmul float %10, %29
  %31 = tail call float @llvm.fmuladd.f32(float %27, float %7, float %30)
  %32 = getelementptr inbounds nuw i8, ptr %2, i64 40
  %33 = load float, ptr %32, align 4, !tbaa !14
  %34 = tail call float @llvm.fmuladd.f32(float %33, float %15, float %31)
  store float %16, ptr %0, align 4, !tbaa !14
  %35 = getelementptr inbounds nuw i8, ptr %0, i64 4
  store float %25, ptr %35, align 4, !tbaa !14
  %36 = getelementptr inbounds nuw i8, ptr %0, i64 8
  store float %34, ptr %36, align 4, !tbaa !14
  %37 = getelementptr inbounds nuw i8, ptr %0, i64 12
  store float 0.000000e+00, ptr %37, align 4, !tbaa !14
  ret void
}